; Function Attrs: mustprogress nofree norecurse nosync nounwind null_pointer_is_valid sspstrong willreturn memory(argmem: read) uwtable
define internal range(i32 0, 2) i32 @reassembled_equal(ptr noundef readonly captures(none) %0, ptr noundef readonly captures(none) %1) #0 {
  %3 = getelementptr inbounds nuw i8, ptr %0, i64 4
  %4 = load i32, ptr %3, align 4
  %5 = getelementptr inbounds nuw i8, ptr %1, i64 4
  %6 = load i32, ptr %5, align 4
  %7 = icmp eq i32 %4, %6
  br i1 %7, label %8, label %13

8:                                                ; preds = %2
  %9 = load i32, ptr %0, align 4
  %10 = load i32, ptr %1, align 4
  %11 = icmp eq i32 %9, %10
  %12 = zext i1 %11 to i32
  br label %13

13:                                               ; preds = %8, %2
  %14 = phi i32 [ 0, %2 ], [ %12, %8 ]
  ret i32 %14
}